; Function Attrs: nounwind uwtable
define dso_local i32 @_hash_datum2hashkey(ptr noundef %0, i64 noundef %1) local_unnamed_addr #1 {
  %3 = tail call ptr @index_getprocinfo(ptr noundef %0, i16 noundef signext 1, i16 noundef zeroext 1) #8
  %4 = getelementptr inbounds nuw i8, ptr %0, i64 440
  %5 = load ptr, ptr %4, align 8
  %6 = load i32, ptr %5, align 4
  %7 = tail call i64 @FunctionCall1Coll(ptr noundef %3, i32 noundef %6, i64 noundef %1) #8
  %8 = trunc i64 %7 to i32
  ret i32 %8
}